; Function Attrs: mustprogress nofree norecurse nosync nounwind willreturn memory(read, inaccessiblemem: none) uwtable
define range(i32 -1, 2) i32 @ssl_version_cmp(ptr noundef readonly captures(none) %0, i32 noundef %1, i32 noundef %2) local_unnamed_addr #5 {
  %4 = icmp eq i32 %1, %2
  br i1 %4, label %23, label %5

5:                                                ; preds = %3
  %6 = getelementptr inbounds nuw i8, ptr %0, i64 24
  %7 = load ptr, ptr %6, align 8, !tbaa !81
  %8 = getelementptr inbounds nuw i8, ptr %7, i64 216
  %9 = load ptr, ptr %8, align 8, !tbaa !82
  %10 = getelementptr inbounds nuw i8, ptr %9, i64 80
  %11 = load i32, ptr %10, align 8, !tbaa !85
  %12 = and i32 %11, 8
  %.not = icmp eq i32 %12, 0
  br i1 %.not, label %13, label %16

13:                                               ; preds = %5
  %14 = icmp slt i32 %1, %2
  %15 = select i1 %14, i32 -1, i32 1
  br label %23

16:                                               ; preds = %5
  %17 = icmp eq i32 %1, 256
  %18 = select i1 %17, i32 65280, i32 %1
  %19 = icmp eq i32 %2, 256
  %20 = select i1 %19, i32 65280, i32 %2
  %21 = icmp sgt i32 %18, %20
  %22 = select i1 %21, i32 -1, i32 1
  br label %23

23:                                               ; preds = %3, %16, %13
  %.0 = phi i32 [ %22, %16 ], [ %15, %13 ], [ 0, %3 ]
  ret i32 %.0
}